
constexpr_call:     file format elf64-x86-64


Disassembly of section .init:

0000000000002000 <_init>:
    2000:	f3 0f 1e fa          	endbr64 
    2004:	48 83 ec 08          	sub    $0x8,%rsp
    2008:	48 8b 05 d9 2f 00 00 	mov    0x2fd9(%rip),%rax        # 4fe8 <__gmon_start__@Base>
    200f:	48 85 c0             	test   %rax,%rax
    2012:	74 02                	je     2016 <_init+0x16>
    2014:	ff d0                	call   *%rax
    2016:	48 83 c4 08          	add    $0x8,%rsp
    201a:	c3                   	ret    

Disassembly of section .plt:

0000000000002020 <.plt>:
    2020:	ff 35 a2 2e 00 00    	push   0x2ea2(%rip)        # 4ec8 <_GLOBAL_OFFSET_TABLE_+0x8>
    2026:	f2 ff 25 a3 2e 00 00 	bnd jmp *0x2ea3(%rip)        # 4ed0 <_GLOBAL_OFFSET_TABLE_+0x10>
    202d:	0f 1f 00             	nopl   (%rax)
    2030:	f3 0f 1e fa          	endbr64 
    2034:	68 00 00 00 00       	push   $0x0
    2039:	f2 e9 e1 ff ff ff    	bnd jmp 2020 <_init+0x20>
    203f:	90                   	nop
    2040:	f3 0f 1e fa          	endbr64 
    2044:	68 01 00 00 00       	push   $0x1
    2049:	f2 e9 d1 ff ff ff    	bnd jmp 2020 <_init+0x20>
    204f:	90                   	nop
    2050:	f3 0f 1e fa          	endbr64 
    2054:	68 02 00 00 00       	push   $0x2
    2059:	f2 e9 c1 ff ff ff    	bnd jmp 2020 <_init+0x20>
    205f:	90                   	nop
    2060:	f3 0f 1e fa          	endbr64 
    2064:	68 03 00 00 00       	push   $0x3
    2069:	f2 e9 b1 ff ff ff    	bnd jmp 2020 <_init+0x20>
    206f:	90                   	nop
    2070:	f3 0f 1e fa          	endbr64 
    2074:	68 04 00 00 00       	push   $0x4
    2079:	f2 e9 a1 ff ff ff    	bnd jmp 2020 <_init+0x20>
    207f:	90                   	nop
    2080:	f3 0f 1e fa          	endbr64 
    2084:	68 05 00 00 00       	push   $0x5
    2089:	f2 e9 91 ff ff ff    	bnd jmp 2020 <_init+0x20>
    208f:	90                   	nop
    2090:	f3 0f 1e fa          	endbr64 
    2094:	68 06 00 00 00       	push   $0x6
    2099:	f2 e9 81 ff ff ff    	bnd jmp 2020 <_init+0x20>
    209f:	90                   	nop
    20a0:	f3 0f 1e fa          	endbr64 
    20a4:	68 07 00 00 00       	push   $0x7
    20a9:	f2 e9 71 ff ff ff    	bnd jmp 2020 <_init+0x20>
    20af:	90                   	nop
    20b0:	f3 0f 1e fa          	endbr64 
    20b4:	68 08 00 00 00       	push   $0x8
    20b9:	f2 e9 61 ff ff ff    	bnd jmp 2020 <_init+0x20>
    20bf:	90                   	nop
    20c0:	f3 0f 1e fa          	endbr64 
    20c4:	68 09 00 00 00       	push   $0x9
    20c9:	f2 e9 51 ff ff ff    	bnd jmp 2020 <_init+0x20>
    20cf:	90                   	nop
    20d0:	f3 0f 1e fa          	endbr64 
    20d4:	68 0a 00 00 00       	push   $0xa
    20d9:	f2 e9 41 ff ff ff    	bnd jmp 2020 <_init+0x20>
    20df:	90                   	nop
    20e0:	f3 0f 1e fa          	endbr64 
    20e4:	68 0b 00 00 00       	push   $0xb
    20e9:	f2 e9 31 ff ff ff    	bnd jmp 2020 <_init+0x20>
    20ef:	90                   	nop
    20f0:	f3 0f 1e fa          	endbr64 
    20f4:	68 0c 00 00 00       	push   $0xc
    20f9:	f2 e9 21 ff ff ff    	bnd jmp 2020 <_init+0x20>
    20ff:	90                   	nop
    2100:	f3 0f 1e fa          	endbr64 
    2104:	68 0d 00 00 00       	push   $0xd
    2109:	f2 e9 11 ff ff ff    	bnd jmp 2020 <_init+0x20>
    210f:	90                   	nop
    2110:	f3 0f 1e fa          	endbr64 
    2114:	68 0e 00 00 00       	push   $0xe
    2119:	f2 e9 01 ff ff ff    	bnd jmp 2020 <_init+0x20>
    211f:	90                   	nop
    2120:	f3 0f 1e fa          	endbr64 
    2124:	68 0f 00 00 00       	push   $0xf
    2129:	f2 e9 f1 fe ff ff    	bnd jmp 2020 <_init+0x20>
    212f:	90                   	nop
    2130:	f3 0f 1e fa          	endbr64 
    2134:	68 10 00 00 00       	push   $0x10
    2139:	f2 e9 e1 fe ff ff    	bnd jmp 2020 <_init+0x20>
    213f:	90                   	nop
    2140:	f3 0f 1e fa          	endbr64 
    2144:	68 11 00 00 00       	push   $0x11
    2149:	f2 e9 d1 fe ff ff    	bnd jmp 2020 <_init+0x20>
    214f:	90                   	nop
    2150:	f3 0f 1e fa          	endbr64 
    2154:	68 12 00 00 00       	push   $0x12
    2159:	f2 e9 c1 fe ff ff    	bnd jmp 2020 <_init+0x20>
    215f:	90                   	nop
    2160:	f3 0f 1e fa          	endbr64 
    2164:	68 13 00 00 00       	push   $0x13
    2169:	f2 e9 b1 fe ff ff    	bnd jmp 2020 <_init+0x20>
    216f:	90                   	nop
    2170:	f3 0f 1e fa          	endbr64 
    2174:	68 14 00 00 00       	push   $0x14
    2179:	f2 e9 a1 fe ff ff    	bnd jmp 2020 <_init+0x20>
    217f:	90                   	nop
    2180:	f3 0f 1e fa          	endbr64 
    2184:	68 15 00 00 00       	push   $0x15
    2189:	f2 e9 91 fe ff ff    	bnd jmp 2020 <_init+0x20>
    218f:	90                   	nop
    2190:	f3 0f 1e fa          	endbr64 
    2194:	68 16 00 00 00       	push   $0x16
    2199:	f2 e9 81 fe ff ff    	bnd jmp 2020 <_init+0x20>
    219f:	90                   	nop
    21a0:	f3 0f 1e fa          	endbr64 
    21a4:	68 17 00 00 00       	push   $0x17
    21a9:	f2 e9 71 fe ff ff    	bnd jmp 2020 <_init+0x20>
    21af:	90                   	nop
    21b0:	f3 0f 1e fa          	endbr64 
    21b4:	68 18 00 00 00       	push   $0x18
    21b9:	f2 e9 61 fe ff ff    	bnd jmp 2020 <_init+0x20>
    21bf:	90                   	nop
    21c0:	f3 0f 1e fa          	endbr64 
    21c4:	68 19 00 00 00       	push   $0x19
    21c9:	f2 e9 51 fe ff ff    	bnd jmp 2020 <_init+0x20>
    21cf:	90                   	nop
    21d0:	f3 0f 1e fa          	endbr64 
    21d4:	68 1a 00 00 00       	push   $0x1a
    21d9:	f2 e9 41 fe ff ff    	bnd jmp 2020 <_init+0x20>
    21df:	90                   	nop
    21e0:	f3 0f 1e fa          	endbr64 
    21e4:	68 1b 00 00 00       	push   $0x1b
    21e9:	f2 e9 31 fe ff ff    	bnd jmp 2020 <_init+0x20>
    21ef:	90                   	nop
    21f0:	f3 0f 1e fa          	endbr64 
    21f4:	68 1c 00 00 00       	push   $0x1c
    21f9:	f2 e9 21 fe ff ff    	bnd jmp 2020 <_init+0x20>
    21ff:	90                   	nop

Disassembly of section .plt.got:

0000000000002200 <__cxa_finalize@plt>:
    2200:	f3 0f 1e fa          	endbr64 
    2204:	f2 ff 25 b5 2d 00 00 	bnd jmp *0x2db5(%rip)        # 4fc0 <__cxa_finalize@GLIBC_2.2.5>
    220b:	0f 1f 44 00 00       	nopl   0x0(%rax,%rax,1)

Disassembly of section .plt.sec:

0000000000002210 <__errno_location@plt>:
    2210:	f3 0f 1e fa          	endbr64 
    2214:	f2 ff 25 bd 2c 00 00 	bnd jmp *0x2cbd(%rip)        # 4ed8 <__errno_location@GLIBC_2.2.5>
    221b:	0f 1f 44 00 00       	nopl   0x0(%rax,%rax,1)

0000000000002220 <_ZNSaIcED2Ev@plt>:
    2220:	f3 0f 1e fa          	endbr64 
    2224:	f2 ff 25 b5 2c 00 00 	bnd jmp *0x2cb5(%rip)        # 4ee0 <_ZNSaIcED2Ev@GLIBCXX_3.4>
    222b:	0f 1f 44 00 00       	nopl   0x0(%rax,%rax,1)

0000000000002230 <__cxa_begin_catch@plt>:
    2230:	f3 0f 1e fa          	endbr64 
    2234:	f2 ff 25 ad 2c 00 00 	bnd jmp *0x2cad(%rip)        # 4ee8 <__cxa_begin_catch@CXXABI_1.3>
    223b:	0f 1f 44 00 00       	nopl   0x0(%rax,%rax,1)

0000000000002240 <_ZNKSt7__cxx1112basic_stringIcSt11char_traitsIcESaIcEE5c_strEv@plt>:
    2240:	f3 0f 1e fa          	endbr64 
    2244:	f2 ff 25 a5 2c 00 00 	bnd jmp *0x2ca5(%rip)        # 4ef0 <_ZNKSt7__cxx1112basic_stringIcSt11char_traitsIcESaIcEE5c_strEv@GLIBCXX_3.4.21>
    224b:	0f 1f 44 00 00       	nopl   0x0(%rax,%rax,1)

0000000000002250 <strlen@plt>:
    2250:	f3 0f 1e fa          	endbr64 
    2254:	f2 ff 25 9d 2c 00 00 	bnd jmp *0x2c9d(%rip)        # 4ef8 <strlen@GLIBC_2.2.5>
    225b:	0f 1f 44 00 00       	nopl   0x0(%rax,%rax,1)

0000000000002260 <_ZSt24__throw_invalid_argumentPKc@plt>:
    2260:	f3 0f 1e fa          	endbr64 
    2264:	f2 ff 25 95 2c 00 00 	bnd jmp *0x2c95(%rip)        # 4f00 <_ZSt24__throw_invalid_argumentPKc@GLIBCXX_3.4>
    226b:	0f 1f 44 00 00       	nopl   0x0(%rax,%rax,1)

0000000000002270 <_ZNSt7__cxx1112basic_stringIcSt11char_traitsIcESaIcEED1Ev@plt>:
    2270:	f3 0f 1e fa          	endbr64 
    2274:	f2 ff 25 8d 2c 00 00 	bnd jmp *0x2c8d(%rip)        # 4f08 <_ZNSt7__cxx1112basic_stringIcSt11char_traitsIcESaIcEED1Ev@GLIBCXX_3.4.21>
    227b:	0f 1f 44 00 00       	nopl   0x0(%rax,%rax,1)

0000000000002280 <_ZNSt7__cxx1112basic_stringIcSt11char_traitsIcESaIcEE13_M_set_lengthEm@plt>:
    2280:	f3 0f 1e fa          	endbr64 
    2284:	f2 ff 25 85 2c 00 00 	bnd jmp *0x2c85(%rip)        # 4f10 <_ZNSt7__cxx1112basic_stringIcSt11char_traitsIcESaIcEE13_M_set_lengthEm@GLIBCXX_3.4.21>
    228b:	0f 1f 44 00 00       	nopl   0x0(%rax,%rax,1)

0000000000002290 <_ZSt19__throw_logic_errorPKc@plt>:
    2290:	f3 0f 1e fa          	endbr64 
    2294:	f2 ff 25 7d 2c 00 00 	bnd jmp *0x2c7d(%rip)        # 4f18 <_ZSt19__throw_logic_errorPKc@GLIBCXX_3.4>
    229b:	0f 1f 44 00 00       	nopl   0x0(%rax,%rax,1)

00000000000022a0 <_ZNSt7__cxx1112basic_stringIcSt11char_traitsIcESaIcEE13_M_local_dataEv@plt>:
    22a0:	f3 0f 1e fa          	endbr64 
    22a4:	f2 ff 25 75 2c 00 00 	bnd jmp *0x2c75(%rip)        # 4f20 <_ZNSt7__cxx1112basic_stringIcSt11char_traitsIcESaIcEE13_M_local_dataEv@GLIBCXX_3.4.21>
    22ab:	0f 1f 44 00 00       	nopl   0x0(%rax,%rax,1)

00000000000022b0 <_ZNSt7__cxx1112basic_stringIcSt11char_traitsIcESaIcEE7_M_dataEPc@plt>:
    22b0:	f3 0f 1e fa          	endbr64 
    22b4:	f2 ff 25 6d 2c 00 00 	bnd jmp *0x2c6d(%rip)        # 4f28 <_ZNSt7__cxx1112basic_stringIcSt11char_traitsIcESaIcEE7_M_dataEPc@GLIBCXX_3.4.21>
    22bb:	0f 1f 44 00 00       	nopl   0x0(%rax,%rax,1)

00000000000022c0 <__cxa_atexit@plt>:
    22c0:	f3 0f 1e fa          	endbr64 
    22c4:	f2 ff 25 65 2c 00 00 	bnd jmp *0x2c65(%rip)        # 4f30 <__cxa_atexit@GLIBC_2.2.5>
    22cb:	0f 1f 44 00 00       	nopl   0x0(%rax,%rax,1)

00000000000022d0 <_ZStlsISt11char_traitsIcEERSt13basic_ostreamIcT_ES5_PKc@plt>:
    22d0:	f3 0f 1e fa          	endbr64 
    22d4:	f2 ff 25 5d 2c 00 00 	bnd jmp *0x2c5d(%rip)        # 4f38 <_ZStlsISt11char_traitsIcEERSt13basic_ostreamIcT_ES5_PKc@GLIBCXX_3.4>
    22db:	0f 1f 44 00 00       	nopl   0x0(%rax,%rax,1)

00000000000022e0 <_ZNSolsEPFRSoS_E@plt>:
    22e0:	f3 0f 1e fa          	endbr64 
    22e4:	f2 ff 25 55 2c 00 00 	bnd jmp *0x2c55(%rip)        # 4f40 <_ZNSolsEPFRSoS_E@GLIBCXX_3.4>
    22eb:	0f 1f 44 00 00       	nopl   0x0(%rax,%rax,1)

00000000000022f0 <_ZNSt7__cxx1112basic_stringIcSt11char_traitsIcESaIcEE12_Alloc_hiderC1EPcRKS3_@plt>:
    22f0:	f3 0f 1e fa          	endbr64 
    22f4:	f2 ff 25 4d 2c 00 00 	bnd jmp *0x2c4d(%rip)        # 4f48 <_ZNSt7__cxx1112basic_stringIcSt11char_traitsIcESaIcEE12_Alloc_hiderC1EPcRKS3_@GLIBCXX_3.4.21>
    22fb:	0f 1f 44 00 00       	nopl   0x0(%rax,%rax,1)

0000000000002300 <_ZNSaIcED1Ev@plt>:
    2300:	f3 0f 1e fa          	endbr64 
    2304:	f2 ff 25 45 2c 00 00 	bnd jmp *0x2c45(%rip)        # 4f50 <_ZNSaIcED1Ev@GLIBCXX_3.4>
    230b:	0f 1f 44 00 00       	nopl   0x0(%rax,%rax,1)

0000000000002310 <_ZNKSt7__cxx1112basic_stringIcSt11char_traitsIcESaIcEE7_M_dataEv@plt>:
    2310:	f3 0f 1e fa          	endbr64 
    2314:	f2 ff 25 3d 2c 00 00 	bnd jmp *0x2c3d(%rip)        # 4f58 <_ZNKSt7__cxx1112basic_stringIcSt11char_traitsIcESaIcEE7_M_dataEv@GLIBCXX_3.4.21>
    231b:	0f 1f 44 00 00       	nopl   0x0(%rax,%rax,1)

0000000000002320 <_ZNSt7__cxx1112basic_stringIcSt11char_traitsIcESaIcEE13_S_copy_charsEPcPKcS7_@plt>:
    2320:	f3 0f 1e fa          	endbr64 
    2324:	f2 ff 25 35 2c 00 00 	bnd jmp *0x2c35(%rip)        # 4f60 <_ZNSt7__cxx1112basic_stringIcSt11char_traitsIcESaIcEE13_S_copy_charsEPcPKcS7_@GLIBCXX_3.4.21>
    232b:	0f 1f 44 00 00       	nopl   0x0(%rax,%rax,1)

0000000000002330 <__stack_chk_fail@plt>:
    2330:	f3 0f 1e fa          	endbr64 
    2334:	f2 ff 25 2d 2c 00 00 	bnd jmp *0x2c2d(%rip)        # 4f68 <__stack_chk_fail@GLIBC_2.4>
    233b:	0f 1f 44 00 00       	nopl   0x0(%rax,%rax,1)

0000000000002340 <_ZNSt7__cxx1112basic_stringIcSt11char_traitsIcESaIcEE10_M_disposeEv@plt>:
    2340:	f3 0f 1e fa          	endbr64 
    2344:	f2 ff 25 25 2c 00 00 	bnd jmp *0x2c25(%rip)        # 4f70 <_ZNSt7__cxx1112basic_stringIcSt11char_traitsIcESaIcEE10_M_disposeEv@GLIBCXX_3.4.21>
    234b:	0f 1f 44 00 00       	nopl   0x0(%rax,%rax,1)

0000000000002350 <_ZSt20__throw_out_of_rangePKc@plt>:
    2350:	f3 0f 1e fa          	endbr64 
    2354:	f2 ff 25 1d 2c 00 00 	bnd jmp *0x2c1d(%rip)        # 4f78 <_ZSt20__throw_out_of_rangePKc@GLIBCXX_3.4>
    235b:	0f 1f 44 00 00       	nopl   0x0(%rax,%rax,1)

0000000000002360 <__cxa_rethrow@plt>:
    2360:	f3 0f 1e fa          	endbr64 
    2364:	f2 ff 25 15 2c 00 00 	bnd jmp *0x2c15(%rip)        # 4f80 <__cxa_rethrow@CXXABI_1.3>
    236b:	0f 1f 44 00 00       	nopl   0x0(%rax,%rax,1)

0000000000002370 <_ZNSt8ios_base4InitC1Ev@plt>:
    2370:	f3 0f 1e fa          	endbr64 
    2374:	f2 ff 25 0d 2c 00 00 	bnd jmp *0x2c0d(%rip)        # 4f88 <_ZNSt8ios_base4InitC1Ev@GLIBCXX_3.4>
    237b:	0f 1f 44 00 00       	nopl   0x0(%rax,%rax,1)

0000000000002380 <__cxa_end_catch@plt>:
    2380:	f3 0f 1e fa          	endbr64 
    2384:	f2 ff 25 05 2c 00 00 	bnd jmp *0x2c05(%rip)        # 4f90 <__cxa_end_catch@CXXABI_1.3>
    238b:	0f 1f 44 00 00       	nopl   0x0(%rax,%rax,1)

0000000000002390 <_ZNSolsEi@plt>:
    2390:	f3 0f 1e fa          	endbr64 
    2394:	f2 ff 25 fd 2b 00 00 	bnd jmp *0x2bfd(%rip)        # 4f98 <_ZNSolsEi@GLIBCXX_3.4>
    239b:	0f 1f 44 00 00       	nopl   0x0(%rax,%rax,1)

00000000000023a0 <_Unwind_Resume@plt>:
    23a0:	f3 0f 1e fa          	endbr64 
    23a4:	f2 ff 25 f5 2b 00 00 	bnd jmp *0x2bf5(%rip)        # 4fa0 <_Unwind_Resume@GCC_3.0>
    23ab:	0f 1f 44 00 00       	nopl   0x0(%rax,%rax,1)

00000000000023b0 <_ZNSaIcEC1Ev@plt>:
    23b0:	f3 0f 1e fa          	endbr64 
    23b4:	f2 ff 25 ed 2b 00 00 	bnd jmp *0x2bed(%rip)        # 4fa8 <_ZNSaIcEC1Ev@GLIBCXX_3.4>
    23bb:	0f 1f 44 00 00       	nopl   0x0(%rax,%rax,1)

00000000000023c0 <_ZNSt7__cxx1112basic_stringIcSt11char_traitsIcESaIcEE9_M_createERmm@plt>:
    23c0:	f3 0f 1e fa          	endbr64 
    23c4:	f2 ff 25 e5 2b 00 00 	bnd jmp *0x2be5(%rip)        # 4fb0 <_ZNSt7__cxx1112basic_stringIcSt11char_traitsIcESaIcEE9_M_createERmm@GLIBCXX_3.4.21>
    23cb:	0f 1f 44 00 00       	nopl   0x0(%rax,%rax,1)

00000000000023d0 <_ZNSt7__cxx1112basic_stringIcSt11char_traitsIcESaIcEE11_M_capacityEm@plt>:
    23d0:	f3 0f 1e fa          	endbr64 
    23d4:	f2 ff 25 dd 2b 00 00 	bnd jmp *0x2bdd(%rip)        # 4fb8 <_ZNSt7__cxx1112basic_stringIcSt11char_traitsIcESaIcEE11_M_capacityEm@GLIBCXX_3.4.21>
    23db:	0f 1f 44 00 00       	nopl   0x0(%rax,%rax,1)

Disassembly of section .text:

00000000000023e0 <_start>:
    23e0:	f3 0f 1e fa          	endbr64 
    23e4:	31 ed                	xor    %ebp,%ebp
    23e6:	49 89 d1             	mov    %rdx,%r9
    23e9:	5e                   	pop    %rsi
    23ea:	48 89 e2             	mov    %rsp,%rdx
    23ed:	48 83 e4 f0          	and    $0xfffffffffffffff0,%rsp
    23f1:	50                   	push   %rax
    23f2:	54                   	push   %rsp
    23f3:	45 31 c0             	xor    %r8d,%r8d
    23f6:	31 c9                	xor    %ecx,%ecx
    23f8:	48 8d 3d ca 00 00 00 	lea    0xca(%rip),%rdi        # 24c9 <main>
    23ff:	ff 15 cb 2b 00 00    	call   *0x2bcb(%rip)        # 4fd0 <__libc_start_main@GLIBC_2.34>
    2405:	f4                   	hlt    
    2406:	66 2e 0f 1f 84 00 00 	cs nopw 0x0(%rax,%rax,1)
    240d:	00 00 00 

0000000000002410 <deregister_tm_clones>:
    2410:	48 8d 3d 01 2c 00 00 	lea    0x2c01(%rip),%rdi        # 5018 <__TMC_END__>
    2417:	48 8d 05 fa 2b 00 00 	lea    0x2bfa(%rip),%rax        # 5018 <__TMC_END__>
    241e:	48 39 f8             	cmp    %rdi,%rax
    2421:	74 15                	je     2438 <deregister_tm_clones+0x28>
    2423:	48 8b 05 b6 2b 00 00 	mov    0x2bb6(%rip),%rax        # 4fe0 <_ITM_deregisterTMCloneTable@Base>
    242a:	48 85 c0             	test   %rax,%rax
    242d:	74 09                	je     2438 <deregister_tm_clones+0x28>
    242f:	ff e0                	jmp    *%rax
    2431:	0f 1f 80 00 00 00 00 	nopl   0x0(%rax)
    2438:	c3                   	ret    
    2439:	0f 1f 80 00 00 00 00 	nopl   0x0(%rax)

0000000000002440 <register_tm_clones>:
    2440:	48 8d 3d d1 2b 00 00 	lea    0x2bd1(%rip),%rdi        # 5018 <__TMC_END__>
    2447:	48 8d 35 ca 2b 00 00 	lea    0x2bca(%rip),%rsi        # 5018 <__TMC_END__>
    244e:	48 29 fe             	sub    %rdi,%rsi
    2451:	48 89 f0             	mov    %rsi,%rax
    2454:	48 c1 ee 3f          	shr    $0x3f,%rsi
    2458:	48 c1 f8 03          	sar    $0x3,%rax
    245c:	48 01 c6             	add    %rax,%rsi
    245f:	48 d1 fe             	sar    %rsi
    2462:	74 14                	je     2478 <register_tm_clones+0x38>
    2464:	48 8b 05 85 2b 00 00 	mov    0x2b85(%rip),%rax        # 4ff0 <_ITM_registerTMCloneTable@Base>
    246b:	48 85 c0             	test   %rax,%rax
    246e:	74 08                	je     2478 <register_tm_clones+0x38>
    2470:	ff e0                	jmp    *%rax
    2472:	66 0f 1f 44 00 00    	nopw   0x0(%rax,%rax,1)
    2478:	c3                   	ret    
    2479:	0f 1f 80 00 00 00 00 	nopl   0x0(%rax)

0000000000002480 <__do_global_dtors_aux>:
    2480:	f3 0f 1e fa          	endbr64 
    2484:	80 3d c5 2c 00 00 00 	cmpb   $0x0,0x2cc5(%rip)        # 5150 <completed.0>
    248b:	75 2b                	jne    24b8 <__do_global_dtors_aux+0x38>
    248d:	55                   	push   %rbp
    248e:	48 83 3d 2a 2b 00 00 	cmpq   $0x0,0x2b2a(%rip)        # 4fc0 <__cxa_finalize@GLIBC_2.2.5>
    2495:	00 
    2496:	48 89 e5             	mov    %rsp,%rbp
    2499:	74 0c                	je     24a7 <__do_global_dtors_aux+0x27>
    249b:	48 8b 3d 66 2b 00 00 	mov    0x2b66(%rip),%rdi        # 5008 <__dso_handle>
    24a2:	e8 59 fd ff ff       	call   2200 <__cxa_finalize@plt>
    24a7:	e8 64 ff ff ff       	call   2410 <deregister_tm_clones>
    24ac:	c6 05 9d 2c 00 00 01 	movb   $0x1,0x2c9d(%rip)        # 5150 <completed.0>
    24b3:	5d                   	pop    %rbp
    24b4:	c3                   	ret    
    24b5:	0f 1f 00             	nopl   (%rax)
    24b8:	c3                   	ret    
    24b9:	0f 1f 80 00 00 00 00 	nopl   0x0(%rax)

00000000000024c0 <frame_dummy>:
    24c0:	f3 0f 1e fa          	endbr64 
    24c4:	e9 77 ff ff ff       	jmp    2440 <register_tm_clones>

00000000000024c9 <main>:
    24c9:	f3 0f 1e fa          	endbr64 
    24cd:	55                   	push   %rbp
    24ce:	48 89 e5             	mov    %rsp,%rbp
    24d1:	53                   	push   %rbx
    24d2:	48 83 ec 58          	sub    $0x58,%rsp
    24d6:	89 7d ac             	mov    %edi,-0x54(%rbp)
    24d9:	48 89 75 a0          	mov    %rsi,-0x60(%rbp)
    24dd:	64 48 8b 04 25 28 00 	mov    %fs:0x28,%rax
    24e4:	00 00 
    24e6:	48 89 45 e8          	mov    %rax,-0x18(%rbp)
    24ea:	31 c0                	xor    %eax,%eax
    24ec:	48 8d 05 21 0b 00 00 	lea    0xb21(%rip),%rax        # 3014 <_ZL10_23_plus_1+0x4>
    24f3:	48 89 c6             	mov    %rax,%rsi
    24f6:	48 8d 05 43 2b 00 00 	lea    0x2b43(%rip),%rax        # 5040 <_ZSt4cout@GLIBCXX_3.4>
    24fd:	48 89 c7             	mov    %rax,%rdi
    2500:	e8 cb fd ff ff       	call   22d0 <_ZStlsISt11char_traitsIcEERSt13basic_ostreamIcT_ES5_PKc@plt>
    2505:	be 18 00 00 00       	mov    $0x18,%esi
    250a:	48 89 c7             	mov    %rax,%rdi
    250d:	e8 7e fe ff ff       	call   2390 <_ZNSolsEi@plt>
    2512:	48 8b 15 af 2a 00 00 	mov    0x2aaf(%rip),%rdx        # 4fc8 <_ZSt4endlIcSt11char_traitsIcEERSt13basic_ostreamIT_T0_ES6_@GLIBCXX_3.4>
    2519:	48 89 d6             	mov    %rdx,%rsi
    251c:	48 89 c7             	mov    %rax,%rdi
    251f:	e8 bc fd ff ff       	call   22e0 <_ZNSolsEPFRSoS_E@plt>
    2524:	83 7d ac 01          	cmpl   $0x1,-0x54(%rbp)
    2528:	0f 8e 9d 00 00 00    	jle    25cb <main+0x102>
    252e:	48 8d 45 bb          	lea    -0x45(%rbp),%rax
    2532:	48 89 c7             	mov    %rax,%rdi
    2535:	e8 76 fe ff ff       	call   23b0 <_ZNSaIcEC1Ev@plt>
    253a:	48 8b 45 a0          	mov    -0x60(%rbp),%rax
    253e:	48 83 c0 08          	add    $0x8,%rax
    2542:	48 8b 08             	mov    (%rax),%rcx
    2545:	48 8d 55 bb          	lea    -0x45(%rbp),%rdx
    2549:	48 8d 45 c0          	lea    -0x40(%rbp),%rax
    254d:	48 89 ce             	mov    %rcx,%rsi
    2550:	48 89 c7             	mov    %rax,%rdi
    2553:	e8 2c 04 00 00       	call   2984 <_ZNSt7__cxx1112basic_stringIcSt11char_traitsIcESaIcEEC1IS3_EEPKcRKS3_>
    2558:	48 8d 45 c0          	lea    -0x40(%rbp),%rax
    255c:	ba 0a 00 00 00       	mov    $0xa,%edx
    2561:	be 00 00 00 00       	mov    $0x0,%esi
    2566:	48 89 c7             	mov    %rax,%rdi
    2569:	e8 5e 01 00 00       	call   26cc <_ZNSt7__cxx114stoiERKNS_12basic_stringIcSt11char_traitsIcESaIcEEEPmi>
    256e:	89 45 bc             	mov    %eax,-0x44(%rbp)
    2571:	48 8d 45 c0          	lea    -0x40(%rbp),%rax
    2575:	48 89 c7             	mov    %rax,%rdi
    2578:	e8 f3 fc ff ff       	call   2270 <_ZNSt7__cxx1112basic_stringIcSt11char_traitsIcESaIcEED1Ev@plt>
    257d:	48 8d 45 bb          	lea    -0x45(%rbp),%rax
    2581:	48 89 c7             	mov    %rax,%rdi
    2584:	e8 77 fd ff ff       	call   2300 <_ZNSaIcED1Ev@plt>
    2589:	48 8d 05 93 0a 00 00 	lea    0xa93(%rip),%rax        # 3023 <_ZL10_23_plus_1+0x13>
    2590:	48 89 c6             	mov    %rax,%rsi
    2593:	48 8d 05 a6 2a 00 00 	lea    0x2aa6(%rip),%rax        # 5040 <_ZSt4cout@GLIBCXX_3.4>
    259a:	48 89 c7             	mov    %rax,%rdi
    259d:	e8 2e fd ff ff       	call   22d0 <_ZStlsISt11char_traitsIcEERSt13basic_ostreamIcT_ES5_PKc@plt>
    25a2:	48 89 c3             	mov    %rax,%rbx
    25a5:	8b 45 bc             	mov    -0x44(%rbp),%eax
    25a8:	89 c7                	mov    %eax,%edi
    25aa:	e8 6b 01 00 00       	call   271a <_Z9incrementi>
    25af:	89 c6                	mov    %eax,%esi
    25b1:	48 89 df             	mov    %rbx,%rdi
    25b4:	e8 d7 fd ff ff       	call   2390 <_ZNSolsEi@plt>
    25b9:	48 8b 15 08 2a 00 00 	mov    0x2a08(%rip),%rdx        # 4fc8 <_ZSt4endlIcSt11char_traitsIcEERSt13basic_ostreamIT_T0_ES6_@GLIBCXX_3.4>
    25c0:	48 89 d6             	mov    %rdx,%rsi
    25c3:	48 89 c7             	mov    %rax,%rdi
    25c6:	e8 15 fd ff ff       	call   22e0 <_ZNSolsEPFRSoS_E@plt>
    25cb:	b8 00 00 00 00       	mov    $0x0,%eax
    25d0:	48 8b 55 e8          	mov    -0x18(%rbp),%rdx
    25d4:	64 48 2b 14 25 28 00 	sub    %fs:0x28,%rdx
    25db:	00 00 
    25dd:	74 3a                	je     2619 <main+0x150>
    25df:	eb 33                	jmp    2614 <main+0x14b>
    25e1:	f3 0f 1e fa          	endbr64 
    25e5:	48 89 c3             	mov    %rax,%rbx
    25e8:	48 8d 45 c0          	lea    -0x40(%rbp),%rax
    25ec:	48 89 c7             	mov    %rax,%rdi
    25ef:	e8 7c fc ff ff       	call   2270 <_ZNSt7__cxx1112basic_stringIcSt11char_traitsIcESaIcEED1Ev@plt>
    25f4:	eb 07                	jmp    25fd <main+0x134>
    25f6:	f3 0f 1e fa          	endbr64 
    25fa:	48 89 c3             	mov    %rax,%rbx
    25fd:	48 8d 45 bb          	lea    -0x45(%rbp),%rax
    2601:	48 89 c7             	mov    %rax,%rdi
    2604:	e8 f7 fc ff ff       	call   2300 <_ZNSaIcED1Ev@plt>
    2609:	48 89 d8             	mov    %rbx,%rax
    260c:	48 89 c7             	mov    %rax,%rdi
    260f:	e8 8c fd ff ff       	call   23a0 <_Unwind_Resume@plt>
    2614:	e8 17 fd ff ff       	call   2330 <__stack_chk_fail@plt>
    2619:	48 8b 5d f8          	mov    -0x8(%rbp),%rbx
    261d:	c9                   	leave  
    261e:	c3                   	ret    

000000000000261f <_Z41__static_initialization_and_destruction_0ii>:
    261f:	f3 0f 1e fa          	endbr64 
    2623:	55                   	push   %rbp
    2624:	48 89 e5             	mov    %rsp,%rbp
    2627:	48 83 ec 10          	sub    $0x10,%rsp
    262b:	89 7d fc             	mov    %edi,-0x4(%rbp)
    262e:	89 75 f8             	mov    %esi,-0x8(%rbp)
    2631:	83 7d fc 01          	cmpl   $0x1,-0x4(%rbp)
    2635:	75 3b                	jne    2672 <_Z41__static_initialization_and_destruction_0ii+0x53>
    2637:	81 7d f8 ff ff 00 00 	cmpl   $0xffff,-0x8(%rbp)
    263e:	75 32                	jne    2672 <_Z41__static_initialization_and_destruction_0ii+0x53>
    2640:	48 8d 05 0a 2b 00 00 	lea    0x2b0a(%rip),%rax        # 5151 <_ZStL8__ioinit>
    2647:	48 89 c7             	mov    %rax,%rdi
    264a:	e8 21 fd ff ff       	call   2370 <_ZNSt8ios_base4InitC1Ev@plt>
    264f:	48 8d 05 b2 29 00 00 	lea    0x29b2(%rip),%rax        # 5008 <__dso_handle>
    2656:	48 89 c2             	mov    %rax,%rdx
    2659:	48 8d 05 f1 2a 00 00 	lea    0x2af1(%rip),%rax        # 5151 <_ZStL8__ioinit>
    2660:	48 89 c6             	mov    %rax,%rsi
    2663:	48 8b 05 8e 29 00 00 	mov    0x298e(%rip),%rax        # 4ff8 <_ZNSt8ios_base4InitD1Ev@GLIBCXX_3.4>
    266a:	48 89 c7             	mov    %rax,%rdi
    266d:	e8 4e fc ff ff       	call   22c0 <__cxa_atexit@plt>
    2672:	90                   	nop
    2673:	c9                   	leave  
    2674:	c3                   	ret    

0000000000002675 <_GLOBAL__sub_I_main>:
    2675:	f3 0f 1e fa          	endbr64 
    2679:	55                   	push   %rbp
    267a:	48 89 e5             	mov    %rsp,%rbp
    267d:	be ff ff 00 00       	mov    $0xffff,%esi
    2682:	bf 01 00 00 00       	mov    $0x1,%edi
    2687:	e8 93 ff ff ff       	call   261f <_Z41__static_initialization_and_destruction_0ii>
    268c:	5d                   	pop    %rbp
    268d:	c3                   	ret    

000000000000268e <_ZNSt11char_traitsIcE6lengthEPKc>:
    268e:	f3 0f 1e fa          	endbr64 
    2692:	55                   	push   %rbp
    2693:	48 89 e5             	mov    %rsp,%rbp
    2696:	48 83 ec 20          	sub    $0x20,%rsp
    269a:	48 89 7d e8          	mov    %rdi,-0x18(%rbp)
    269e:	48 8b 45 e8          	mov    -0x18(%rbp),%rax
    26a2:	48 89 45 f8          	mov    %rax,-0x8(%rbp)
    26a6:	b8 00 00 00 00       	mov    $0x0,%eax
    26ab:	84 c0                	test   %al,%al
    26ad:	74 0e                	je     26bd <_ZNSt11char_traitsIcE6lengthEPKc+0x2f>
    26af:	48 8b 45 e8          	mov    -0x18(%rbp),%rax
    26b3:	48 89 c7             	mov    %rax,%rdi
    26b6:	e8 9d 00 00 00       	call   2758 <_ZN9__gnu_cxx11char_traitsIcE6lengthEPKc>
    26bb:	eb 0d                	jmp    26ca <_ZNSt11char_traitsIcE6lengthEPKc+0x3c>
    26bd:	48 8b 45 e8          	mov    -0x18(%rbp),%rax
    26c1:	48 89 c7             	mov    %rax,%rdi
    26c4:	e8 87 fb ff ff       	call   2250 <strlen@plt>
    26c9:	90                   	nop
    26ca:	c9                   	leave  
    26cb:	c3                   	ret    

00000000000026cc <_ZNSt7__cxx114stoiERKNS_12basic_stringIcSt11char_traitsIcESaIcEEEPmi>:
    26cc:	f3 0f 1e fa          	endbr64 
    26d0:	55                   	push   %rbp
    26d1:	48 89 e5             	mov    %rsp,%rbp
    26d4:	48 83 ec 20          	sub    $0x20,%rsp
    26d8:	48 89 7d f8          	mov    %rdi,-0x8(%rbp)
    26dc:	48 89 75 f0          	mov    %rsi,-0x10(%rbp)
    26e0:	89 55 ec             	mov    %edx,-0x14(%rbp)
    26e3:	48 8b 45 f8          	mov    -0x8(%rbp),%rax
    26e7:	48 89 c7             	mov    %rax,%rdi
    26ea:	e8 51 fb ff ff       	call   2240 <_ZNKSt7__cxx1112basic_stringIcSt11char_traitsIcESaIcEE5c_strEv@plt>
    26ef:	48 89 c2             	mov    %rax,%rdx
    26f2:	8b 4d ec             	mov    -0x14(%rbp),%ecx
    26f5:	48 8b 45 f0          	mov    -0x10(%rbp),%rax
    26f9:	41 89 c8             	mov    %ecx,%r8d
    26fc:	48 89 c1             	mov    %rax,%rcx
    26ff:	48 8d 05 02 09 00 00 	lea    0x902(%rip),%rax        # 3008 <_IO_stdin_used+0x8>
    2706:	48 89 c6             	mov    %rax,%rsi
    2709:	48 8b 05 c8 28 00 00 	mov    0x28c8(%rip),%rax        # 4fd8 <strtol@GLIBC_2.2.5>
    2710:	48 89 c7             	mov    %rax,%rdi
    2713:	e8 3a 01 00 00       	call   2852 <_ZN9__gnu_cxx6__stoaIlicJiEEET0_PFT_PKT1_PPS3_DpT2_EPKcS5_PmS9_>
    2718:	c9                   	leave  
    2719:	c3                   	ret    

000000000000271a <_Z9incrementi>:
    271a:	f3 0f 1e fa          	endbr64 
    271e:	55                   	push   %rbp
    271f:	48 89 e5             	mov    %rsp,%rbp
    2722:	89 7d ec             	mov    %edi,-0x14(%rbp)
    2725:	8b 45 ec             	mov    -0x14(%rbp),%eax
    2728:	83 c0 01             	add    $0x1,%eax
    272b:	89 45 fc             	mov    %eax,-0x4(%rbp)
    272e:	8b 45 fc             	mov    -0x4(%rbp),%eax
    2731:	5d                   	pop    %rbp
    2732:	c3                   	ret    

0000000000002733 <_ZN9__gnu_cxx11char_traitsIcE2eqERKcS3_>:
    2733:	f3 0f 1e fa          	endbr64 
    2737:	55                   	push   %rbp
    2738:	48 89 e5             	mov    %rsp,%rbp
    273b:	48 89 7d f8          	mov    %rdi,-0x8(%rbp)
    273f:	48 89 75 f0          	mov    %rsi,-0x10(%rbp)
    2743:	48 8b 45 f8          	mov    -0x8(%rbp),%rax
    2747:	0f b6 10             	movzbl (%rax),%edx
    274a:	48 8b 45 f0          	mov    -0x10(%rbp),%rax
    274e:	0f b6 00             	movzbl (%rax),%eax
    2751:	38 c2                	cmp    %al,%dl
    2753:	0f 94 c0             	sete   %al
    2756:	5d                   	pop    %rbp
    2757:	c3                   	ret    

0000000000002758 <_ZN9__gnu_cxx11char_traitsIcE6lengthEPKc>:
    2758:	f3 0f 1e fa          	endbr64 
    275c:	55                   	push   %rbp
    275d:	48 89 e5             	mov    %rsp,%rbp
    2760:	48 83 ec 30          	sub    $0x30,%rsp
    2764:	48 89 7d d8          	mov    %rdi,-0x28(%rbp)
    2768:	64 48 8b 04 25 28 00 	mov    %fs:0x28,%rax
    276f:	00 00 
    2771:	48 89 45 f8          	mov    %rax,-0x8(%rbp)
    2775:	31 c0                	xor    %eax,%eax
    2777:	48 c7 45 f0 00 00 00 	movq   $0x0,-0x10(%rbp)
    277e:	00 
    277f:	eb 05                	jmp    2786 <_ZN9__gnu_cxx11char_traitsIcE6lengthEPKc+0x2e>
    2781:	48 83 45 f0 01       	addq   $0x1,-0x10(%rbp)
    2786:	c6 45 ef 00          	movb   $0x0,-0x11(%rbp)
    278a:	48 8b 55 d8          	mov    -0x28(%rbp),%rdx
    278e:	48 8b 45 f0          	mov    -0x10(%rbp),%rax
    2792:	48 01 c2             	add    %rax,%rdx
    2795:	48 8d 45 ef          	lea    -0x11(%rbp),%rax
    2799:	48 89 c6             	mov    %rax,%rsi
    279c:	48 89 d7             	mov    %rdx,%rdi
    279f:	e8 8f ff ff ff       	call   2733 <_ZN9__gnu_cxx11char_traitsIcE2eqERKcS3_>
    27a4:	83 f0 01             	xor    $0x1,%eax
    27a7:	84 c0                	test   %al,%al
    27a9:	75 d6                	jne    2781 <_ZN9__gnu_cxx11char_traitsIcE6lengthEPKc+0x29>
    27ab:	48 8b 45 f0          	mov    -0x10(%rbp),%rax
    27af:	48 8b 55 f8          	mov    -0x8(%rbp),%rdx
    27b3:	64 48 2b 14 25 28 00 	sub    %fs:0x28,%rdx
    27ba:	00 00 
    27bc:	74 05                	je     27c3 <_ZN9__gnu_cxx11char_traitsIcE6lengthEPKc+0x6b>
    27be:	e8 6d fb ff ff       	call   2330 <__stack_chk_fail@plt>
    27c3:	c9                   	leave  
    27c4:	c3                   	ret    
    27c5:	90                   	nop

00000000000027c6 <_ZZN9__gnu_cxx6__stoaIlicJiEEET0_PFT_PKT1_PPS3_DpT2_EPKcS5_PmS9_EN11_Save_errnoC1Ev>:
    27c6:	f3 0f 1e fa          	endbr64 
    27ca:	55                   	push   %rbp
    27cb:	48 89 e5             	mov    %rsp,%rbp
    27ce:	48 83 ec 10          	sub    $0x10,%rsp
    27d2:	48 89 7d f8          	mov    %rdi,-0x8(%rbp)
    27d6:	e8 35 fa ff ff       	call   2210 <__errno_location@plt>
    27db:	8b 10                	mov    (%rax),%edx
    27dd:	48 8b 45 f8          	mov    -0x8(%rbp),%rax
    27e1:	89 10                	mov    %edx,(%rax)
    27e3:	e8 28 fa ff ff       	call   2210 <__errno_location@plt>
    27e8:	c7 00 00 00 00 00    	movl   $0x0,(%rax)
    27ee:	90                   	nop
    27ef:	c9                   	leave  
    27f0:	c3                   	ret    
    27f1:	90                   	nop

00000000000027f2 <_ZZN9__gnu_cxx6__stoaIlicJiEEET0_PFT_PKT1_PPS3_DpT2_EPKcS5_PmS9_EN11_Save_errnoD1Ev>:
    27f2:	f3 0f 1e fa          	endbr64 
    27f6:	55                   	push   %rbp
    27f7:	48 89 e5             	mov    %rsp,%rbp
    27fa:	48 83 ec 10          	sub    $0x10,%rsp
    27fe:	48 89 7d f8          	mov    %rdi,-0x8(%rbp)
    2802:	e8 09 fa ff ff       	call   2210 <__errno_location@plt>
    2807:	8b 00                	mov    (%rax),%eax
    2809:	85 c0                	test   %eax,%eax
    280b:	75 0d                	jne    281a <_ZZN9__gnu_cxx6__stoaIlicJiEEET0_PFT_PKT1_PPS3_DpT2_EPKcS5_PmS9_EN11_Save_errnoD1Ev+0x28>
    280d:	e8 fe f9 ff ff       	call   2210 <__errno_location@plt>
    2812:	48 8b 55 f8          	mov    -0x8(%rbp),%rdx
    2816:	8b 12                	mov    (%rdx),%edx
    2818:	89 10                	mov    %edx,(%rax)
    281a:	90                   	nop
    281b:	c9                   	leave  
    281c:	c3                   	ret    

000000000000281d <_ZZN9__gnu_cxx6__stoaIlicJiEEET0_PFT_PKT1_PPS3_DpT2_EPKcS5_PmS9_EN10_Range_chk6_S_chkElSt17integral_constantIbLb1EE>:
    281d:	f3 0f 1e fa          	endbr64 
    2821:	55                   	push   %rbp
    2822:	48 89 e5             	mov    %rsp,%rbp
    2825:	48 89 7d f8          	mov    %rdi,-0x8(%rbp)
    2829:	48 b8 ff ff ff 7f ff 	movabs $0xffffffff7fffffff,%rax
    2830:	ff ff ff 
    2833:	48 39 45 f8          	cmp    %rax,-0x8(%rbp)
    2837:	7e 0b                	jle    2844 <_ZZN9__gnu_cxx6__stoaIlicJiEEET0_PFT_PKT1_PPS3_DpT2_EPKcS5_PmS9_EN10_Range_chk6_S_chkElSt17integral_constantIbLb1EE+0x27>
    2839:	b8 00 00 00 80       	mov    $0x80000000,%eax
    283e:	48 39 45 f8          	cmp    %rax,-0x8(%rbp)
    2842:	7c 07                	jl     284b <_ZZN9__gnu_cxx6__stoaIlicJiEEET0_PFT_PKT1_PPS3_DpT2_EPKcS5_PmS9_EN10_Range_chk6_S_chkElSt17integral_constantIbLb1EE+0x2e>
    2844:	b8 01 00 00 00       	mov    $0x1,%eax
    2849:	eb 05                	jmp    2850 <_ZZN9__gnu_cxx6__stoaIlicJiEEET0_PFT_PKT1_PPS3_DpT2_EPKcS5_PmS9_EN10_Range_chk6_S_chkElSt17integral_constantIbLb1EE+0x33>
    284b:	b8 00 00 00 00       	mov    $0x0,%eax
    2850:	5d                   	pop    %rbp
    2851:	c3                   	ret    

0000000000002852 <_ZN9__gnu_cxx6__stoaIlicJiEEET0_PFT_PKT1_PPS3_DpT2_EPKcS5_PmS9_>:
    2852:	f3 0f 1e fa          	endbr64 
    2856:	55                   	push   %rbp
    2857:	48 89 e5             	mov    %rsp,%rbp
    285a:	53                   	push   %rbx
    285b:	48 83 ec 68          	sub    $0x68,%rsp
    285f:	48 89 7d b8          	mov    %rdi,-0x48(%rbp)
    2863:	48 89 75 b0          	mov    %rsi,-0x50(%rbp)
    2867:	48 89 55 a8          	mov    %rdx,-0x58(%rbp)
    286b:	48 89 4d a0          	mov    %rcx,-0x60(%rbp)
    286f:	44 89 45 9c          	mov    %r8d,-0x64(%rbp)
    2873:	64 48 8b 04 25 28 00 	mov    %fs:0x28,%rax
    287a:	00 00 
    287c:	48 89 45 e8          	mov    %rax,-0x18(%rbp)
    2880:	31 c0                	xor    %eax,%eax
    2882:	48 8d 45 d0          	lea    -0x30(%rbp),%rax
    2886:	48 89 c7             	mov    %rax,%rdi
    2889:	e8 38 ff ff ff       	call   27c6 <_ZZN9__gnu_cxx6__stoaIlicJiEEET0_PFT_PKT1_PPS3_DpT2_EPKcS5_PmS9_EN11_Save_errnoC1Ev>
    288e:	4c 8b 45 b8          	mov    -0x48(%rbp),%r8
    2892:	8b 55 9c             	mov    -0x64(%rbp),%edx
    2895:	48 8d 4d d8          	lea    -0x28(%rbp),%rcx
    2899:	48 8b 45 a8          	mov    -0x58(%rbp),%rax
    289d:	48 89 ce             	mov    %rcx,%rsi
    28a0:	48 89 c7             	mov    %rax,%rdi
    28a3:	41 ff d0             	call   *%r8
    28a6:	48 89 45 e0          	mov    %rax,-0x20(%rbp)
    28aa:	48 8b 45 d8          	mov    -0x28(%rbp),%rax
    28ae:	48 39 45 a8          	cmp    %rax,-0x58(%rbp)
    28b2:	75 0c                	jne    28c0 <_ZN9__gnu_cxx6__stoaIlicJiEEET0_PFT_PKT1_PPS3_DpT2_EPKcS5_PmS9_+0x6e>
    28b4:	48 8b 45 b0          	mov    -0x50(%rbp),%rax
    28b8:	48 89 c7             	mov    %rax,%rdi
    28bb:	e8 a0 f9 ff ff       	call   2260 <_ZSt24__throw_invalid_argumentPKc@plt>
    28c0:	e8 4b f9 ff ff       	call   2210 <__errno_location@plt>
    28c5:	8b 00                	mov    (%rax),%eax
    28c7:	83 f8 22             	cmp    $0x22,%eax
    28ca:	74 10                	je     28dc <_ZN9__gnu_cxx6__stoaIlicJiEEET0_PFT_PKT1_PPS3_DpT2_EPKcS5_PmS9_+0x8a>
    28cc:	48 8b 45 e0          	mov    -0x20(%rbp),%rax
    28d0:	48 89 c7             	mov    %rax,%rdi
    28d3:	e8 45 ff ff ff       	call   281d <_ZZN9__gnu_cxx6__stoaIlicJiEEET0_PFT_PKT1_PPS3_DpT2_EPKcS5_PmS9_EN10_Range_chk6_S_chkElSt17integral_constantIbLb1EE>
    28d8:	84 c0                	test   %al,%al
    28da:	74 07                	je     28e3 <_ZN9__gnu_cxx6__stoaIlicJiEEET0_PFT_PKT1_PPS3_DpT2_EPKcS5_PmS9_+0x91>
    28dc:	b8 01 00 00 00       	mov    $0x1,%eax
    28e1:	eb 05                	jmp    28e8 <_ZN9__gnu_cxx6__stoaIlicJiEEET0_PFT_PKT1_PPS3_DpT2_EPKcS5_PmS9_+0x96>
    28e3:	b8 00 00 00 00       	mov    $0x0,%eax
    28e8:	84 c0                	test   %al,%al
    28ea:	74 0c                	je     28f8 <_ZN9__gnu_cxx6__stoaIlicJiEEET0_PFT_PKT1_PPS3_DpT2_EPKcS5_PmS9_+0xa6>
    28ec:	48 8b 45 b0          	mov    -0x50(%rbp),%rax
    28f0:	48 89 c7             	mov    %rax,%rdi
    28f3:	e8 58 fa ff ff       	call   2350 <_ZSt20__throw_out_of_rangePKc@plt>
    28f8:	48 8b 45 e0          	mov    -0x20(%rbp),%rax
    28fc:	89 45 d4             	mov    %eax,-0x2c(%rbp)
    28ff:	48 83 7d a0 00       	cmpq   $0x0,-0x60(%rbp)
    2904:	74 12                	je     2918 <_ZN9__gnu_cxx6__stoaIlicJiEEET0_PFT_PKT1_PPS3_DpT2_EPKcS5_PmS9_+0xc6>
    2906:	48 8b 45 d8          	mov    -0x28(%rbp),%rax
    290a:	48 2b 45 a8          	sub    -0x58(%rbp),%rax
    290e:	48 89 c2             	mov    %rax,%rdx
    2911:	48 8b 45 a0          	mov    -0x60(%rbp),%rax
    2915:	48 89 10             	mov    %rdx,(%rax)
    2918:	8b 5d d4             	mov    -0x2c(%rbp),%ebx
    291b:	48 8d 45 d0          	lea    -0x30(%rbp),%rax
    291f:	48 89 c7             	mov    %rax,%rdi
    2922:	e8 cb fe ff ff       	call   27f2 <_ZZN9__gnu_cxx6__stoaIlicJiEEET0_PFT_PKT1_PPS3_DpT2_EPKcS5_PmS9_EN11_Save_errnoD1Ev>
    2927:	89 d8                	mov    %ebx,%eax
    2929:	48 8b 55 e8          	mov    -0x18(%rbp),%rdx
    292d:	64 48 2b 14 25 28 00 	sub    %fs:0x28,%rdx
    2934:	00 00 
    2936:	74 25                	je     295d <_ZN9__gnu_cxx6__stoaIlicJiEEET0_PFT_PKT1_PPS3_DpT2_EPKcS5_PmS9_+0x10b>
    2938:	eb 1e                	jmp    2958 <_ZN9__gnu_cxx6__stoaIlicJiEEET0_PFT_PKT1_PPS3_DpT2_EPKcS5_PmS9_+0x106>
    293a:	f3 0f 1e fa          	endbr64 
    293e:	48 89 c3             	mov    %rax,%rbx
    2941:	48 8d 45 d0          	lea    -0x30(%rbp),%rax
    2945:	48 89 c7             	mov    %rax,%rdi
    2948:	e8 a5 fe ff ff       	call   27f2 <_ZZN9__gnu_cxx6__stoaIlicJiEEET0_PFT_PKT1_PPS3_DpT2_EPKcS5_PmS9_EN11_Save_errnoD1Ev>
    294d:	48 89 d8             	mov    %rbx,%rax
    2950:	48 89 c7             	mov    %rax,%rdi
    2953:	e8 48 fa ff ff       	call   23a0 <_Unwind_Resume@plt>
    2958:	e8 d3 f9 ff ff       	call   2330 <__stack_chk_fail@plt>
    295d:	48 8b 5d f8          	mov    -0x8(%rbp),%rbx
    2961:	c9                   	leave  
    2962:	c3                   	ret    
    2963:	90                   	nop

0000000000002964 <_ZNSt7__cxx1112basic_stringIcSt11char_traitsIcESaIcEE12_Alloc_hiderD1Ev>:
    2964:	f3 0f 1e fa          	endbr64 
    2968:	55                   	push   %rbp
    2969:	48 89 e5             	mov    %rsp,%rbp
    296c:	48 83 ec 10          	sub    $0x10,%rsp
    2970:	48 89 7d f8          	mov    %rdi,-0x8(%rbp)
    2974:	48 8b 45 f8          	mov    -0x8(%rbp),%rax
    2978:	48 89 c7             	mov    %rax,%rdi
    297b:	e8 a0 f8 ff ff       	call   2220 <_ZNSaIcED2Ev@plt>
    2980:	90                   	nop
    2981:	c9                   	leave  
    2982:	c3                   	ret    
    2983:	90                   	nop

0000000000002984 <_ZNSt7__cxx1112basic_stringIcSt11char_traitsIcESaIcEEC1IS3_EEPKcRKS3_>:
    2984:	f3 0f 1e fa          	endbr64 
    2988:	55                   	push   %rbp
    2989:	48 89 e5             	mov    %rsp,%rbp
    298c:	53                   	push   %rbx
    298d:	48 83 ec 48          	sub    $0x48,%rsp
    2991:	48 89 7d c8          	mov    %rdi,-0x38(%rbp)
    2995:	48 89 75 c0          	mov    %rsi,-0x40(%rbp)
    2999:	48 89 55 b8          	mov    %rdx,-0x48(%rbp)
    299d:	64 48 8b 04 25 28 00 	mov    %fs:0x28,%rax
    29a4:	00 00 
    29a6:	48 89 45 e8          	mov    %rax,-0x18(%rbp)
    29aa:	31 c0                	xor    %eax,%eax
    29ac:	48 8b 5d c8          	mov    -0x38(%rbp),%rbx
    29b0:	48 8b 45 c8          	mov    -0x38(%rbp),%rax
    29b4:	48 89 c7             	mov    %rax,%rdi
    29b7:	e8 e4 f8 ff ff       	call   22a0 <_ZNSt7__cxx1112basic_stringIcSt11char_traitsIcESaIcEE13_M_local_dataEv@plt>
    29bc:	48 89 c1             	mov    %rax,%rcx
    29bf:	48 8b 45 b8          	mov    -0x48(%rbp),%rax
    29c3:	48 89 c2             	mov    %rax,%rdx
    29c6:	48 89 ce             	mov    %rcx,%rsi
    29c9:	48 89 df             	mov    %rbx,%rdi
    29cc:	e8 1f f9 ff ff       	call   22f0 <_ZNSt7__cxx1112basic_stringIcSt11char_traitsIcESaIcEE12_Alloc_hiderC1EPcRKS3_@plt>
    29d1:	48 83 7d c0 00       	cmpq   $0x0,-0x40(%rbp)
    29d6:	74 15                	je     29ed <_ZNSt7__cxx1112basic_stringIcSt11char_traitsIcESaIcEEC1IS3_EEPKcRKS3_+0x69>
    29d8:	48 8b 45 c0          	mov    -0x40(%rbp),%rax
    29dc:	48 89 c7             	mov    %rax,%rdi
    29df:	e8 aa fc ff ff       	call   268e <_ZNSt11char_traitsIcE6lengthEPKc>
    29e4:	48 8b 55 c0          	mov    -0x40(%rbp),%rdx
    29e8:	48 01 d0             	add    %rdx,%rax
    29eb:	eb 05                	jmp    29f2 <_ZNSt7__cxx1112basic_stringIcSt11char_traitsIcESaIcEEC1IS3_EEPKcRKS3_+0x6e>
    29ed:	b8 01 00 00 00       	mov    $0x1,%eax
    29f2:	48 89 45 e0          	mov    %rax,-0x20(%rbp)
    29f6:	48 8b 55 e0          	mov    -0x20(%rbp),%rdx
    29fa:	48 8b 4d c0          	mov    -0x40(%rbp),%rcx
    29fe:	48 8b 45 c8          	mov    -0x38(%rbp),%rax
    2a02:	48 89 ce             	mov    %rcx,%rsi
    2a05:	48 89 c7             	mov    %rax,%rdi
    2a08:	e8 6f 00 00 00       	call   2a7c <_ZNSt7__cxx1112basic_stringIcSt11char_traitsIcESaIcEE12_M_constructIPKcEEvT_S8_St20forward_iterator_tag>
    2a0d:	eb 1e                	jmp    2a2d <_ZNSt7__cxx1112basic_stringIcSt11char_traitsIcESaIcEEC1IS3_EEPKcRKS3_+0xa9>
    2a0f:	f3 0f 1e fa          	endbr64 
    2a13:	48 89 c3             	mov    %rax,%rbx
    2a16:	48 8b 45 c8          	mov    -0x38(%rbp),%rax
    2a1a:	48 89 c7             	mov    %rax,%rdi
    2a1d:	e8 42 ff ff ff       	call   2964 <_ZNSt7__cxx1112basic_stringIcSt11char_traitsIcESaIcEE12_Alloc_hiderD1Ev>
    2a22:	48 89 d8             	mov    %rbx,%rax
    2a25:	48 89 c7             	mov    %rax,%rdi
    2a28:	e8 73 f9 ff ff       	call   23a0 <_Unwind_Resume@plt>
    2a2d:	48 8b 45 e8          	mov    -0x18(%rbp),%rax
    2a31:	64 48 2b 04 25 28 00 	sub    %fs:0x28,%rax
    2a38:	00 00 
    2a3a:	74 05                	je     2a41 <_ZNSt7__cxx1112basic_stringIcSt11char_traitsIcESaIcEEC1IS3_EEPKcRKS3_+0xbd>
    2a3c:	e8 ef f8 ff ff       	call   2330 <__stack_chk_fail@plt>
    2a41:	48 8b 5d f8          	mov    -0x8(%rbp),%rbx
    2a45:	c9                   	leave  
    2a46:	c3                   	ret    

0000000000002a47 <_ZSt8distanceIPKcENSt15iterator_traitsIT_E15difference_typeES3_S3_>:
    2a47:	f3 0f 1e fa          	endbr64 
    2a4b:	55                   	push   %rbp
    2a4c:	48 89 e5             	mov    %rsp,%rbp
    2a4f:	48 83 ec 10          	sub    $0x10,%rsp
    2a53:	48 89 7d f8          	mov    %rdi,-0x8(%rbp)
    2a57:	48 89 75 f0          	mov    %rsi,-0x10(%rbp)
    2a5b:	48 8d 45 f8          	lea    -0x8(%rbp),%rax
    2a5f:	48 89 c7             	mov    %rax,%rdi
    2a62:	e8 70 01 00 00       	call   2bd7 <_ZSt19__iterator_categoryIPKcENSt15iterator_traitsIT_E17iterator_categoryERKS3_>
    2a67:	48 8b 45 f8          	mov    -0x8(%rbp),%rax
    2a6b:	48 8b 55 f0          	mov    -0x10(%rbp),%rdx
    2a6f:	48 89 d6             	mov    %rdx,%rsi
    2a72:	48 89 c7             	mov    %rax,%rdi
    2a75:	e8 6b 01 00 00       	call   2be5 <_ZSt10__distanceIPKcENSt15iterator_traitsIT_E15difference_typeES3_S3_St26random_access_iterator_tag>
    2a7a:	c9                   	leave  
    2a7b:	c3                   	ret    

0000000000002a7c <_ZNSt7__cxx1112basic_stringIcSt11char_traitsIcESaIcEE12_M_constructIPKcEEvT_S8_St20forward_iterator_tag>:
    2a7c:	f3 0f 1e fa          	endbr64 
    2a80:	55                   	push   %rbp
    2a81:	48 89 e5             	mov    %rsp,%rbp
    2a84:	53                   	push   %rbx
    2a85:	48 83 ec 38          	sub    $0x38,%rsp
    2a89:	48 89 7d d8          	mov    %rdi,-0x28(%rbp)
    2a8d:	48 89 75 d0          	mov    %rsi,-0x30(%rbp)
    2a91:	48 89 55 c8          	mov    %rdx,-0x38(%rbp)
    2a95:	64 48 8b 04 25 28 00 	mov    %fs:0x28,%rax
    2a9c:	00 00 
    2a9e:	48 89 45 e8          	mov    %rax,-0x18(%rbp)
    2aa2:	31 c0                	xor    %eax,%eax
    2aa4:	48 8b 45 d0          	mov    -0x30(%rbp),%rax
    2aa8:	48 89 c7             	mov    %rax,%rdi
    2aab:	e8 11 01 00 00       	call   2bc1 <_ZN9__gnu_cxx17__is_null_pointerIKcEEbPT_>
    2ab0:	84 c0                	test   %al,%al
    2ab2:	74 11                	je     2ac5 <_ZNSt7__cxx1112basic_stringIcSt11char_traitsIcESaIcEE12_M_constructIPKcEEvT_S8_St20forward_iterator_tag+0x49>
    2ab4:	48 8b 45 d0          	mov    -0x30(%rbp),%rax
    2ab8:	48 3b 45 c8          	cmp    -0x38(%rbp),%rax
    2abc:	74 07                	je     2ac5 <_ZNSt7__cxx1112basic_stringIcSt11char_traitsIcESaIcEE12_M_constructIPKcEEvT_S8_St20forward_iterator_tag+0x49>
    2abe:	b8 01 00 00 00       	mov    $0x1,%eax
    2ac3:	eb 05                	jmp    2aca <_ZNSt7__cxx1112basic_stringIcSt11char_traitsIcESaIcEE12_M_constructIPKcEEvT_S8_St20forward_iterator_tag+0x4e>
    2ac5:	b8 00 00 00 00       	mov    $0x0,%eax
    2aca:	84 c0                	test   %al,%al
    2acc:	74 0f                	je     2add <_ZNSt7__cxx1112basic_stringIcSt11char_traitsIcESaIcEE12_M_constructIPKcEEvT_S8_St20forward_iterator_tag+0x61>
    2ace:	48 8d 05 5b 05 00 00 	lea    0x55b(%rip),%rax        # 3030 <_ZL10_23_plus_1+0x20>
    2ad5:	48 89 c7             	mov    %rax,%rdi
    2ad8:	e8 b3 f7 ff ff       	call   2290 <_ZSt19__throw_logic_errorPKc@plt>
    2add:	48 8b 55 c8          	mov    -0x38(%rbp),%rdx
    2ae1:	48 8b 45 d0          	mov    -0x30(%rbp),%rax
    2ae5:	48 89 d6             	mov    %rdx,%rsi
    2ae8:	48 89 c7             	mov    %rax,%rdi
    2aeb:	e8 57 ff ff ff       	call   2a47 <_ZSt8distanceIPKcENSt15iterator_traitsIT_E15difference_typeES3_S3_>
    2af0:	48 89 45 e0          	mov    %rax,-0x20(%rbp)
    2af4:	48 8b 45 e0          	mov    -0x20(%rbp),%rax
    2af8:	48 83 f8 0f          	cmp    $0xf,%rax
    2afc:	76 3d                	jbe    2b3b <_ZNSt7__cxx1112basic_stringIcSt11char_traitsIcESaIcEE12_M_constructIPKcEEvT_S8_St20forward_iterator_tag+0xbf>
    2afe:	48 8d 4d e0          	lea    -0x20(%rbp),%rcx
    2b02:	48 8b 45 d8          	mov    -0x28(%rbp),%rax
    2b06:	ba 00 00 00 00       	mov    $0x0,%edx
    2b0b:	48 89 ce             	mov    %rcx,%rsi
    2b0e:	48 89 c7             	mov    %rax,%rdi
    2b11:	e8 aa f8 ff ff       	call   23c0 <_ZNSt7__cxx1112basic_stringIcSt11char_traitsIcESaIcEE9_M_createERmm@plt>
    2b16:	48 89 c2             	mov    %rax,%rdx
    2b19:	48 8b 45 d8          	mov    -0x28(%rbp),%rax
    2b1d:	48 89 d6             	mov    %rdx,%rsi
    2b20:	48 89 c7             	mov    %rax,%rdi
    2b23:	e8 88 f7 ff ff       	call   22b0 <_ZNSt7__cxx1112basic_stringIcSt11char_traitsIcESaIcEE7_M_dataEPc@plt>
    2b28:	48 8b 55 e0          	mov    -0x20(%rbp),%rdx
    2b2c:	48 8b 45 d8          	mov    -0x28(%rbp),%rax
    2b30:	48 89 d6             	mov    %rdx,%rsi
    2b33:	48 89 c7             	mov    %rax,%rdi
    2b36:	e8 95 f8 ff ff       	call   23d0 <_ZNSt7__cxx1112basic_stringIcSt11char_traitsIcESaIcEE11_M_capacityEm@plt>
    2b3b:	48 8b 45 d8          	mov    -0x28(%rbp),%rax
    2b3f:	48 89 c7             	mov    %rax,%rdi
    2b42:	e8 c9 f7 ff ff       	call   2310 <_ZNKSt7__cxx1112basic_stringIcSt11char_traitsIcESaIcEE7_M_dataEv@plt>
    2b47:	48 89 c1             	mov    %rax,%rcx
    2b4a:	48 8b 55 c8          	mov    -0x38(%rbp),%rdx
    2b4e:	48 8b 45 d0          	mov    -0x30(%rbp),%rax
    2b52:	48 89 c6             	mov    %rax,%rsi
    2b55:	48 89 cf             	mov    %rcx,%rdi
    2b58:	e8 c3 f7 ff ff       	call   2320 <_ZNSt7__cxx1112basic_stringIcSt11char_traitsIcESaIcEE13_S_copy_charsEPcPKcS7_@plt>
    2b5d:	48 8b 55 e0          	mov    -0x20(%rbp),%rdx
    2b61:	48 8b 45 d8          	mov    -0x28(%rbp),%rax
    2b65:	48 89 d6             	mov    %rdx,%rsi
    2b68:	48 89 c7             	mov    %rax,%rdi
    2b6b:	e8 10 f7 ff ff       	call   2280 <_ZNSt7__cxx1112basic_stringIcSt11char_traitsIcESaIcEE13_M_set_lengthEm@plt>
    2b70:	90                   	nop
    2b71:	48 8b 45 e8          	mov    -0x18(%rbp),%rax
    2b75:	64 48 2b 04 25 28 00 	sub    %fs:0x28,%rax
    2b7c:	00 00 
    2b7e:	74 3b                	je     2bbb <_ZNSt7__cxx1112basic_stringIcSt11char_traitsIcESaIcEE12_M_constructIPKcEEvT_S8_St20forward_iterator_tag+0x13f>
    2b80:	eb 34                	jmp    2bb6 <_ZNSt7__cxx1112basic_stringIcSt11char_traitsIcESaIcEE12_M_constructIPKcEEvT_S8_St20forward_iterator_tag+0x13a>
    2b82:	f3 0f 1e fa          	endbr64 
    2b86:	48 89 c7             	mov    %rax,%rdi
    2b89:	e8 a2 f6 ff ff       	call   2230 <__cxa_begin_catch@plt>
    2b8e:	48 8b 45 d8          	mov    -0x28(%rbp),%rax
    2b92:	48 89 c7             	mov    %rax,%rdi
    2b95:	e8 a6 f7 ff ff       	call   2340 <_ZNSt7__cxx1112basic_stringIcSt11char_traitsIcESaIcEE10_M_disposeEv@plt>
    2b9a:	e8 c1 f7 ff ff       	call   2360 <__cxa_rethrow@plt>
    2b9f:	f3 0f 1e fa          	endbr64 
    2ba3:	48 89 c3             	mov    %rax,%rbx
    2ba6:	e8 d5 f7 ff ff       	call   2380 <__cxa_end_catch@plt>
    2bab:	48 89 d8             	mov    %rbx,%rax
    2bae:	48 89 c7             	mov    %rax,%rdi
    2bb1:	e8 ea f7 ff ff       	call   23a0 <_Unwind_Resume@plt>
    2bb6:	e8 75 f7 ff ff       	call   2330 <__stack_chk_fail@plt>
    2bbb:	48 8b 5d f8          	mov    -0x8(%rbp),%rbx
    2bbf:	c9                   	leave  
    2bc0:	c3                   	ret    

0000000000002bc1 <_ZN9__gnu_cxx17__is_null_pointerIKcEEbPT_>:
    2bc1:	f3 0f 1e fa          	endbr64 
    2bc5:	55                   	push   %rbp
    2bc6:	48 89 e5             	mov    %rsp,%rbp
    2bc9:	48 89 7d f8          	mov    %rdi,-0x8(%rbp)
    2bcd:	48 83 7d f8 00       	cmpq   $0x0,-0x8(%rbp)
    2bd2:	0f 94 c0             	sete   %al
    2bd5:	5d                   	pop    %rbp
    2bd6:	c3                   	ret    

0000000000002bd7 <_ZSt19__iterator_categoryIPKcENSt15iterator_traitsIT_E17iterator_categoryERKS3_>:
    2bd7:	f3 0f 1e fa          	endbr64 
    2bdb:	55                   	push   %rbp
    2bdc:	48 89 e5             	mov    %rsp,%rbp
    2bdf:	48 89 7d f8          	mov    %rdi,-0x8(%rbp)
    2be3:	5d                   	pop    %rbp
    2be4:	c3                   	ret    

0000000000002be5 <_ZSt10__distanceIPKcENSt15iterator_traitsIT_E15difference_typeES3_S3_St26random_access_iterator_tag>:
    2be5:	f3 0f 1e fa          	endbr64 
    2be9:	55                   	push   %rbp
    2bea:	48 89 e5             	mov    %rsp,%rbp
    2bed:	48 89 7d f8          	mov    %rdi,-0x8(%rbp)
    2bf1:	48 89 75 f0          	mov    %rsi,-0x10(%rbp)
    2bf5:	48 8b 45 f0          	mov    -0x10(%rbp),%rax
    2bf9:	48 2b 45 f8          	sub    -0x8(%rbp),%rax
    2bfd:	5d                   	pop    %rbp
    2bfe:	c3                   	ret    

Disassembly of section .fini:

0000000000002c00 <_fini>:
    2c00:	f3 0f 1e fa          	endbr64 
    2c04:	48 83 ec 08          	sub    $0x8,%rsp
    2c08:	48 83 c4 08          	add    $0x8,%rsp
    2c0c:	c3                   	ret    
